; Function Attrs: mustprogress uwtable
define noundef zeroext i1 @_ZN3url18ConvertUTF8ToUTF16EPKciPNS_12CanonOutputTItEE(ptr noundef %0, i32 noundef %1, ptr noundef %2) local_unnamed_addr #0 {
  %4 = alloca i32, align 4
  %5 = alloca i32, align 4
  call void @llvm.lifetime.start.p0(i64 4, ptr nonnull %4) #7
  store i32 0, ptr %4, align 4, !tbaa !3
  %6 = icmp sgt i32 %1, 0
  br i1 %6, label %.lr.ph, label %._crit_edge

.lr.ph:                                           ; preds = %3
  %7 = getelementptr inbounds nuw i8, ptr %2, i64 20
  %8 = getelementptr inbounds nuw i8, ptr %2, i64 16
  %.sink3.in.i.i = getelementptr inbounds nuw i8, ptr %2, i64 8
  br label %9

._crit_edge:                                      ; preds = %_ZN3url16AppendUTF16ValueEjPNS_12CanonOutputTItEE.exit, %3
  %.0.lcssa = phi i1 [ true, %3 ], [ %68, %_ZN3url16AppendUTF16ValueEjPNS_12CanonOutputTItEE.exit ]
  call void @llvm.lifetime.end.p0(i64 4, ptr nonnull %4) #7
  ret i1 %.0.lcssa

9:                                                ; preds = %.lr.ph, %_ZN3url16AppendUTF16ValueEjPNS_12CanonOutputTItEE.exit
  %.014 = phi i1 [ true, %.lr.ph ], [ %68, %_ZN3url16AppendUTF16ValueEjPNS_12CanonOutputTItEE.exit ]
  call void @llvm.lifetime.start.p0(i64 4, ptr nonnull %5) #7
  %10 = call noundef zeroext i1 @_ZN4base20ReadUnicodeCharacterEPKciPiPj(ptr noundef %0, i32 noundef %1, ptr noundef nonnull %4, ptr noundef nonnull %5)
  br i1 %10, label %11, label %_ZN4base16IsValidCharacterEj.exit.thread6.i

11:                                               ; preds = %9
  %12 = load i32, ptr %5, align 4, !tbaa !3
  %13 = icmp ult i32 %12, 55296
  %14 = add i32 %12, -57344
  %or.cond.i.i = icmp ult i32 %14, 7632
  %or.cond9.i.i = or i1 %13, %or.cond.i.i
  br i1 %or.cond9.i.i, label %_ZN3url11ReadUTFCharEPKcPiiPj.exit.thread, label %15

15:                                               ; preds = %11
  %16 = add i32 %12, -65008
  %or.cond3.i.i = icmp ult i32 %16, 1049104
  %17 = and i32 %12, 65534
  %18 = icmp ne i32 %17, 65534
  %or.cond.i = and i1 %or.cond3.i.i, %18
  br i1 %or.cond.i, label %_ZN3url11ReadUTFCharEPKcPiiPj.exit, label %_ZN4base16IsValidCharacterEj.exit.thread6.i

_ZN4base16IsValidCharacterEj.exit.thread6.i:      ; preds = %15, %9
  store i32 65533, ptr %5, align 4, !tbaa !3
  br label %_ZN3url11ReadUTFCharEPKcPiiPj.exit.thread

_ZN3url11ReadUTFCharEPKcPiiPj.exit.thread:        ; preds = %11, %_ZN4base16IsValidCharacterEj.exit.thread6.i
  %.ph = phi i32 [ 65533, %_ZN4base16IsValidCharacterEj.exit.thread6.i ], [ %12, %11 ]
  %.0.i.ph = phi i1 [ false, %_ZN4base16IsValidCharacterEj.exit.thread6.i ], [ true, %11 ]
  %19 = and i1 %.014, %.0.i.ph
  br label %50

_ZN3url11ReadUTFCharEPKcPiiPj.exit:               ; preds = %15
  %20 = icmp samesign ugt i32 %12, 65535
  br i1 %20, label %21, label %50

21:                                               ; preds = %_ZN3url11ReadUTFCharEPKcPiiPj.exit
  %22 = lshr i32 %12, 10
  %23 = trunc nuw i32 %22 to i16
  %24 = add nuw nsw i16 %23, -10304
  %25 = load i32, ptr %7, align 4, !tbaa !25
  %26 = load i32, ptr %8, align 8, !tbaa !28
  %27 = icmp slt i32 %25, %26
  br i1 %27, label %_ZN3url12CanonOutputTItE4GrowEi.exit.sink.split.i.i, label %select.unfold.i.preheader.i.i

select.unfold.i.preheader.i.i:                    ; preds = %21
  %28 = icmp eq i32 %26, 0
  %spec.select = select i1 %28, i32 16, i32 %26
  br label %select.unfold.i.i.i

select.unfold.i.i.i:                              ; preds = %select.unfold.i.preheader.i.i, %30
  %.0.i.i.i = phi i32 [ %31, %30 ], [ %spec.select, %select.unfold.i.preheader.i.i ]
  %29 = icmp slt i32 %.0.i.i.i, 1073741824
  br i1 %29, label %30, label %_ZN3url12CanonOutputTItE9push_backEt.exit.i

30:                                               ; preds = %select.unfold.i.i.i
  %31 = shl nsw i32 %.0.i.i.i, 1
  %.not.i.i = icmp sgt i32 %31, %26
  br i1 %.not.i.i, label %32, label %select.unfold.i.i.i, !llvm.loop !29

32:                                               ; preds = %30
  %33 = load ptr, ptr %2, align 8, !tbaa !15
  %34 = getelementptr inbounds nuw i8, ptr %33, i64 16
  %35 = load ptr, ptr %34, align 8
  call void %35(ptr noundef nonnull align 8 dereferenceable(24) %2, i32 noundef %31)
  %36 = load i32, ptr %7, align 4, !tbaa !25
  %.pre.pre.i = load i32, ptr %8, align 8, !tbaa !28
  br label %_ZN3url12CanonOutputTItE4GrowEi.exit.sink.split.i.i

_ZN3url12CanonOutputTItE4GrowEi.exit.sink.split.i.i: ; preds = %32, %21
  %.pre.i = phi i32 [ %.pre.pre.i, %32 ], [ %26, %21 ]
  %.sink.i.i = phi i32 [ %36, %32 ], [ %25, %21 ]
  %.sink3.i.i = load ptr, ptr %.sink3.in.i.i, align 8, !tbaa !30
  %37 = sext i32 %.sink.i.i to i64
  %38 = getelementptr inbounds i16, ptr %.sink3.i.i, i64 %37
  store i16 %24, ptr %38, align 2, !tbaa !19
  %39 = add nsw i32 %.sink.i.i, 1
  store i32 %39, ptr %7, align 4, !tbaa !25
  br label %_ZN3url12CanonOutputTItE9push_backEt.exit.i

_ZN3url12CanonOutputTItE9push_backEt.exit.i:      ; preds = %select.unfold.i.i.i, %_ZN3url12CanonOutputTItE4GrowEi.exit.sink.split.i.i
  %40 = phi i32 [ %.pre.i, %_ZN3url12CanonOutputTItE4GrowEi.exit.sink.split.i.i ], [ %26, %select.unfold.i.i.i ]
  %41 = phi i32 [ %39, %_ZN3url12CanonOutputTItE4GrowEi.exit.sink.split.i.i ], [ %25, %select.unfold.i.i.i ]
  %42 = trunc i32 %12 to i16
  %43 = and i16 %42, 1023
  %44 = or disjoint i16 %43, -9216
  %45 = icmp slt i32 %41, %40
  br i1 %45, label %_ZN3url16AppendUTF16ValueEjPNS_12CanonOutputTItEE.exit.sink.split, label %select.unfold.i.preheader.i6.i

select.unfold.i.preheader.i6.i:                   ; preds = %_ZN3url12CanonOutputTItE9push_backEt.exit.i
  %46 = icmp eq i32 %40, 0
  %spec.select26 = select i1 %46, i32 16, i32 %40
  br label %select.unfold.i.i8.i

select.unfold.i.i8.i:                             ; preds = %select.unfold.i.preheader.i6.i, %48
  %.0.i.i9.i = phi i32 [ %49, %48 ], [ %spec.select26, %select.unfold.i.preheader.i6.i ]
  %47 = icmp slt i32 %.0.i.i9.i, 1073741824
  br i1 %47, label %48, label %_ZN3url16AppendUTF16ValueEjPNS_12CanonOutputTItEE.exit

48:                                               ; preds = %select.unfold.i.i8.i
  %49 = shl nsw i32 %.0.i.i9.i, 1
  %.not.i10.i = icmp sgt i32 %49, %40
  br i1 %.not.i10.i, label %_ZN3url16AppendUTF16ValueEjPNS_12CanonOutputTItEE.exit.sink.split.sink.split, label %select.unfold.i.i8.i, !llvm.loop !29

50:                                               ; preds = %_ZN3url11ReadUTFCharEPKcPiiPj.exit.thread, %_ZN3url11ReadUTFCharEPKcPiiPj.exit
  %51 = phi i1 [ %19, %_ZN3url11ReadUTFCharEPKcPiiPj.exit.thread ], [ %.014, %_ZN3url11ReadUTFCharEPKcPiiPj.exit ]
  %52 = phi i32 [ %.ph, %_ZN3url11ReadUTFCharEPKcPiiPj.exit.thread ], [ %12, %_ZN3url11ReadUTFCharEPKcPiiPj.exit ]
  %53 = trunc nuw i32 %52 to i16
  %54 = load i32, ptr %7, align 4, !tbaa !25
  %55 = load i32, ptr %8, align 8, !tbaa !28
  %56 = icmp slt i32 %54, %55
  br i1 %56, label %_ZN3url16AppendUTF16ValueEjPNS_12CanonOutputTItEE.exit.sink.split, label %select.unfold.i.preheader.i16.i

select.unfold.i.preheader.i16.i:                  ; preds = %50
  %57 = icmp eq i32 %55, 0
  %spec.select27 = select i1 %57, i32 16, i32 %55
  br label %select.unfold.i.i18.i

select.unfold.i.i18.i:                            ; preds = %select.unfold.i.preheader.i16.i, %59
  %.0.i.i19.i = phi i32 [ %60, %59 ], [ %spec.select27, %select.unfold.i.preheader.i16.i ]
  %58 = icmp slt i32 %.0.i.i19.i, 1073741824
  br i1 %58, label %59, label %_ZN3url16AppendUTF16ValueEjPNS_12CanonOutputTItEE.exit

59:                                               ; preds = %select.unfold.i.i18.i
  %60 = shl nsw i32 %.0.i.i19.i, 1
  %.not.i20.i = icmp sgt i32 %60, %55
  br i1 %.not.i20.i, label %_ZN3url16AppendUTF16ValueEjPNS_12CanonOutputTItEE.exit.sink.split.sink.split, label %select.unfold.i.i18.i, !llvm.loop !29

_ZN3url16AppendUTF16ValueEjPNS_12CanonOutputTItEE.exit.sink.split.sink.split: ; preds = %48, %59
  %.lcssa24.sink = phi i32 [ %60, %59 ], [ %49, %48 ]
  %.sink.ph = phi i16 [ %53, %59 ], [ %44, %48 ]
  %.ph28.ph = phi i1 [ %51, %59 ], [ %.014, %48 ]
  %61 = load ptr, ptr %2, align 8, !tbaa !15
  %62 = getelementptr inbounds nuw i8, ptr %61, i64 16
  %63 = load ptr, ptr %62, align 8
  call void %63(ptr noundef nonnull align 8 dereferenceable(24) %2, i32 noundef %.lcssa24.sink)
  %64 = load i32, ptr %7, align 4, !tbaa !25
  br label %_ZN3url16AppendUTF16ValueEjPNS_12CanonOutputTItEE.exit.sink.split

_ZN3url16AppendUTF16ValueEjPNS_12CanonOutputTItEE.exit.sink.split: ; preds = %_ZN3url16AppendUTF16ValueEjPNS_12CanonOutputTItEE.exit.sink.split.sink.split, %50, %_ZN3url12CanonOutputTItE9push_backEt.exit.i
  %.sink.i12.i.sink31 = phi i32 [ %41, %_ZN3url12CanonOutputTItE9push_backEt.exit.i ], [ %54, %50 ], [ %64, %_ZN3url16AppendUTF16ValueEjPNS_12CanonOutputTItEE.exit.sink.split.sink.split ]
  %.sink = phi i16 [ %44, %_ZN3url12CanonOutputTItE9push_backEt.exit.i ], [ %53, %50 ], [ %.sink.ph, %_ZN3url16AppendUTF16ValueEjPNS_12CanonOutputTItEE.exit.sink.split.sink.split ]
  %.ph28 = phi i1 [ %.014, %_ZN3url12CanonOutputTItE9push_backEt.exit.i ], [ %51, %50 ], [ %.ph28.ph, %_ZN3url16AppendUTF16ValueEjPNS_12CanonOutputTItEE.exit.sink.split.sink.split ]
  %.sink3.i14.i = load ptr, ptr %.sink3.in.i.i, align 8, !tbaa !30
  %65 = sext i32 %.sink.i12.i.sink31 to i64
  %66 = getelementptr inbounds i16, ptr %.sink3.i14.i, i64 %65
  store i16 %.sink, ptr %66, align 2, !tbaa !19
  %67 = add nsw i32 %.sink.i12.i.sink31, 1
  store i32 %67, ptr %7, align 4, !tbaa !25
  br label %_ZN3url16AppendUTF16ValueEjPNS_12CanonOutputTItEE.exit

_ZN3url16AppendUTF16ValueEjPNS_12CanonOutputTItEE.exit: ; preds = %select.unfold.i.i8.i, %select.unfold.i.i18.i, %_ZN3url16AppendUTF16ValueEjPNS_12CanonOutputTItEE.exit.sink.split
  %68 = phi i1 [ %.ph28, %_ZN3url16AppendUTF16ValueEjPNS_12CanonOutputTItEE.exit.sink.split ], [ %51, %select.unfold.i.i18.i ], [ %.014, %select.unfold.i.i8.i ]
  call void @llvm.lifetime.end.p0(i64 4, ptr nonnull %5) #7
  %69 = load i32, ptr %4, align 4, !tbaa !3
  %70 = add nsw i32 %69, 1
  store i32 %70, ptr %4, align 4, !tbaa !3
  %71 = icmp slt i32 %70, %1
  br i1 %71, label %9, label %._crit_edge, !llvm.loop !31
}